target datalayout = "e-m:e-p270:32:32-p271:32:32-p272:64:64-i64:64-i128:128-f80:128-n8:16:32:64-S128"
target triple = "x86_64-pc-linux-gnu"

%struct.Bac_Pair_t_ = type { i32, ptr, ptr }

; Function Attrs: inlinehint nounwind uwtable
define internal i32 @Bac_GetTypeId(i32 noundef %0) #2 {
  %2 = alloca i32, align 4
  %3 = alloca i32, align 4
  %4 = alloca i32, align 4
  %5 = alloca i32, align 4
  store i32 %0, ptr %3, align 4, !tbaa !8
  call void @llvm.lifetime.start.p0(i64 4, ptr %4) #10
  store i32 1, ptr %4, align 4, !tbaa !8
  br label %6

6:                                                ; preds = %20, %1
  %7 = load i32, ptr %4, align 4, !tbaa !8
  %8 = icmp slt i32 %7, 73
  br i1 %8, label %9, label %23

9:                                                ; preds = %6
  %10 = load i32, ptr %4, align 4, !tbaa !8
  %11 = sext i32 %10 to i64
  %12 = getelementptr inbounds [73 x %struct.Bac_Pair_t_], ptr @s_Types, i64 0, i64 %11
  %13 = getelementptr inbounds nuw %struct.Bac_Pair_t_, ptr %12, i32 0, i32 0
  %14 = load i32, ptr %13, align 8, !tbaa !17
  %15 = load i32, ptr %3, align 4, !tbaa !8
  %16 = icmp eq i32 %14, %15
  br i1 %16, label %17, label %19

17:                                               ; preds = %9
  %18 = load i32, ptr %4, align 4, !tbaa !8
  store i32 %18, ptr %2, align 4
  store i32 1, ptr %5, align 4
  br label %24

19:                                               ; preds = %9
  br label %20

20:                                               ; preds = %19
  %21 = load i32, ptr %4, align 4, !tbaa !8
  %22 = add nsw i32 %21, 1
  store i32 %22, ptr %4, align 4, !tbaa !8
  br label %6, !llvm.loop !18

23:                                               ; preds = %6
  store i32 -1, ptr %2, align 4
  store i32 1, ptr %5, align 4
  br label %24

24:                                               ; preds = %23, %17
  call void @llvm.lifetime.end.p0(i64 4, ptr %4) #10
  %25 = load i32, ptr %2, align 4
  ret i32 %25
}

; Function Attrs: nounwind uwtable
define void @Bac_ManSetupTypes(ptr noundef %0, ptr noundef %1) #0 {
  %3 = alloca ptr, align 8
  %4 = alloca ptr, align 8
  %5 = alloca i32, align 4
  %6 = alloca i32, align 4
  store ptr %0, ptr %3, align 8, !tbaa !3
  store ptr %1, ptr %4, align 8, !tbaa !3
  call void @llvm.lifetime.start.p0(i64 4, ptr %5) #10
  store i32 1, ptr %5, align 4, !tbaa !8
  br label %7

7:                                                ; preds = %31, %2
  %8 = load i32, ptr %5, align 4, !tbaa !8
  %9 = icmp slt i32 %8, 73
  br i1 %9, label %10, label %34

10:                                               ; preds = %7
  call void @llvm.lifetime.start.p0(i64 4, ptr %6) #10
  %11 = load i32, ptr %5, align 4, !tbaa !8
  %12 = call i32 @Bac_GetTypeId(i32 noundef %11)
  store i32 %12, ptr %6, align 4, !tbaa !8
  %13 = load i32, ptr %6, align 4, !tbaa !8
  %14 = sext i32 %13 to i64
  %15 = getelementptr inbounds [73 x %struct.Bac_Pair_t_], ptr @s_Types, i64 0, i64 %14
  %16 = getelementptr inbounds nuw %struct.Bac_Pair_t_, ptr %15, i32 0, i32 1
  %17 = load ptr, ptr %16, align 8, !tbaa !10
  %18 = load ptr, ptr %3, align 8, !tbaa !3
  %19 = load i32, ptr %5, align 4, !tbaa !8
  %20 = sext i32 %19 to i64
  %21 = getelementptr inbounds ptr, ptr %18, i64 %20
  store ptr %17, ptr %21, align 8, !tbaa !13
  %22 = load i32, ptr %6, align 4, !tbaa !8
  %23 = sext i32 %22 to i64
  %24 = getelementptr inbounds [73 x %struct.Bac_Pair_t_], ptr @s_Types, i64 0, i64 %23
  %25 = getelementptr inbounds nuw %struct.Bac_Pair_t_, ptr %24, i32 0, i32 2
  %26 = load ptr, ptr %25, align 8, !tbaa !14
  %27 = load ptr, ptr %4, align 8, !tbaa !3
  %28 = load i32, ptr %5, align 4, !tbaa !8
  %29 = sext i32 %28 to i64
  %30 = getelementptr inbounds ptr, ptr %27, i64 %29
  store ptr %26, ptr %30, align 8, !tbaa !13
  call void @llvm.lifetime.end.p0(i64 4, ptr %6) #10
  br label %31

31:                                               ; preds = %10
  %32 = load i32, ptr %5, align 4, !tbaa !8
  %33 = add nsw i32 %32, 1
  store i32 %33, ptr %5, align 4, !tbaa !8
  br label %7, !llvm.loop !15

34:                                               ; preds = %7
  call void @llvm.lifetime.end.p0(i64 4, ptr %5) #10
  ret void
}