; Function Attrs: nofree norecurse nosync nounwind memory(argmem: write) uwtable
define void @Bac_ManSetupTypes(ptr noundef writeonly captures(none) %0, ptr noundef writeonly captures(none) %1) local_unnamed_addr #0 {
  br label %.preheader

.preheader:                                       ; preds = %2, %Bac_GetTypeId.exit
  %indvars.iv = phi i64 [ 1, %2 ], [ %indvars.iv.next, %Bac_GetTypeId.exit ]
  br label %3

3:                                                ; preds = %.preheader, %8
  %indvars.iv.i = phi i64 [ %indvars.iv.next.i, %8 ], [ 1, %.preheader ]
  %4 = getelementptr inbounds nuw [73 x %struct.Bac_Pair_t_], ptr @s_Types, i64 0, i64 %indvars.iv.i
  %5 = load i32, ptr %4, align 8, !tbaa !3
  %6 = zext i32 %5 to i64
  %7 = icmp eq i64 %indvars.iv, %6
  br i1 %7, label %.split.loop.exit9.i, label %8

8:                                                ; preds = %3
  %indvars.iv.next.i = add nuw nsw i64 %indvars.iv.i, 1
  %exitcond.not.i = icmp eq i64 %indvars.iv.next.i, 73
  br i1 %exitcond.not.i, label %Bac_GetTypeId.exit, label %3, !llvm.loop !10

.split.loop.exit9.i:                              ; preds = %3
  %sext = shl i64 %indvars.iv.i, 32
  %9 = ashr exact i64 %sext, 32
  br label %Bac_GetTypeId.exit

Bac_GetTypeId.exit:                               ; preds = %8, %.split.loop.exit9.i
  %.06.i = phi i64 [ %9, %.split.loop.exit9.i ], [ -1, %8 ]
  %10 = getelementptr inbounds [73 x %struct.Bac_Pair_t_], ptr @s_Types, i64 0, i64 %.06.i
  %11 = getelementptr inbounds nuw i8, ptr %10, i64 8
  %12 = load ptr, ptr %11, align 8, !tbaa !12
  %13 = getelementptr inbounds nuw ptr, ptr %0, i64 %indvars.iv
  store ptr %12, ptr %13, align 8, !tbaa !13
  %14 = getelementptr inbounds nuw i8, ptr %10, i64 16
  %15 = load ptr, ptr %14, align 8, !tbaa !14
  %16 = getelementptr inbounds nuw ptr, ptr %1, i64 %indvars.iv
  store ptr %15, ptr %16, align 8, !tbaa !13
  %indvars.iv.next = add nuw nsw i64 %indvars.iv, 1
  %exitcond.not = icmp eq i64 %indvars.iv.next, 73
  br i1 %exitcond.not, label %17, label %.preheader, !llvm.loop !15

17:                                               ; preds = %Bac_GetTypeId.exit
  ret void
}